target datalayout = "e-m:e-p270:32:32-p271:32:32-p272:64:64-i64:64-i128:128-f80:128-n8:16:32:64-S128"
target triple = "x86_64-pc-linux-gnu"

%struct.BEValue = type { i8, i32, ptr, ptr, ptr }
%union.SourceSpan = type { i64 }
%struct.Type_ = type { i32, ptr, ptr, ptr, %union.anon.97, ptr, ptr, %union.anon.99 }
%union.anon.97 = type { ptr }
%union.anon.99 = type { %struct.TypeFunction }
%struct.TypeFunction = type { ptr, ptr, ptr }
%struct.Decl_ = type { ptr, ptr, %union.SourceSpan, i64, %union.anon, i32, %union.anon.0, i64, ptr, ptr, ptr, %union.anon.1 }
%union.anon = type { ptr }
%union.anon.0 = type { i16 }
%union.anon.1 = type { %struct.FuncDecl }
%struct.FuncDecl = type { i32, [4 x i8], %struct.Signature_, i32, i32, %union.anon.8 }
%struct.Signature_ = type <{ %struct.CalleeAttributes, i16, i8, i32, i32, [4 x i8], ptr }>
%struct.CalleeAttributes = type { i8 }
%union.anon.8 = type { %struct.anon.9 }
%struct.anon.9 = type { i16, %union.anon.10 }
%union.anon.10 = type { ptr }
%struct.anon.2 = type { ptr, ptr, %union.anon.3 }
%union.anon.3 = type { %struct.BitStructDecl }
%struct.BitStructDecl = type { ptr, ptr, i8 }
%struct.StructDecl = type { i32, ptr, i32, i16 }

@.str.9 = private unnamed_addr constant [36 x i8] c"FATAL ERROR %s -> in %s @ in %s:%d \00", align 1
@.str.10 = private unnamed_addr constant [22 x i8] c"Should be unreachable\00", align 1
@.str.11 = private unnamed_addr constant [118 x i8] c"generated/home/dtcxzyw/WorkSpace/Projects/compilers/llvm-opt-benchmark/bench/c3c/c3c/src/compiler/llvm_codegen_expr.c\00", align 1
@__func__.llvm_emit_member_addr = private unnamed_addr constant [22 x i8] c"llvm_emit_member_addr\00", align 1

; Function Attrs: nounwind uwtable
define dso_local void @llvm_value_struct_gep(ptr noundef %0, ptr noundef %1, ptr noundef %2, i32 noundef %3) #0 {
  %5 = alloca ptr, align 8
  %6 = alloca ptr, align 8
  %7 = alloca ptr, align 8
  %8 = alloca i32, align 4
  %9 = alloca i32, align 4
  %10 = alloca ptr, align 8
  %11 = alloca i32, align 4
  %12 = alloca i32, align 4
  %13 = alloca ptr, align 8
  store ptr %0, ptr %5, align 8
  store ptr %1, ptr %6, align 8
  store ptr %2, ptr %7, align 8
  store i32 %3, ptr %8, align 4
  %14 = load ptr, ptr %5, align 8
  %15 = load ptr, ptr %7, align 8
  call void @llvm_value_fold_optional(ptr noundef %14, ptr noundef %15)
  store i32 -1, ptr %9, align 4
  store i32 0, ptr %11, align 4
  br label %16

16:                                               ; preds = %46, %4
  %17 = load i32, ptr %11, align 4
  %18 = load i32, ptr %8, align 4
  %19 = icmp ule i32 %17, %18
  br i1 %19, label %20, label %49

20:                                               ; preds = %16
  %21 = load ptr, ptr %7, align 8
  %22 = getelementptr inbounds %struct.BEValue, ptr %21, i32 0, i32 2
  %23 = load ptr, ptr %22, align 8
  %24 = getelementptr inbounds %struct.Type_, ptr %23, i32 0, i32 7
  %25 = load ptr, ptr %24, align 8
  %26 = getelementptr inbounds %struct.Decl_, ptr %25, i32 0, i32 11
  %27 = getelementptr inbounds %struct.anon.2, ptr %26, i32 0, i32 2
  %28 = getelementptr inbounds %struct.StructDecl, ptr %27, i32 0, i32 1
  %29 = load ptr, ptr %28, align 8
  %30 = load i32, ptr %11, align 4
  %31 = sext i32 %30 to i64
  %32 = getelementptr inbounds ptr, ptr %29, i64 %31
  %33 = load ptr, ptr %32, align 8
  store ptr %33, ptr %10, align 8
  %34 = load ptr, ptr %10, align 8
  %35 = getelementptr inbounds %struct.Decl_, ptr %34, i32 0, i32 7
  %36 = load i64, ptr %35, align 8
  %37 = lshr i64 %36, 32
  %38 = trunc i64 %37 to i32
  %39 = icmp ne i32 %38, 0
  br i1 %39, label %40, label %43

40:                                               ; preds = %20
  %41 = load i32, ptr %9, align 4
  %42 = add nsw i32 %41, 1
  store i32 %42, ptr %9, align 4
  br label %43

43:                                               ; preds = %40, %20
  %44 = load i32, ptr %9, align 4
  %45 = add nsw i32 %44, 1
  store i32 %45, ptr %9, align 4
  br label %46

46:                                               ; preds = %43
  %47 = load i32, ptr %11, align 4
  %48 = add nsw i32 %47, 1
  store i32 %48, ptr %11, align 4
  br label %16, !llvm.loop !33

49:                                               ; preds = %16
  %50 = load ptr, ptr %5, align 8
  %51 = load ptr, ptr %7, align 8
  %52 = getelementptr inbounds %struct.BEValue, ptr %51, i32 0, i32 3
  %53 = load ptr, ptr %52, align 8
  %54 = load ptr, ptr %5, align 8
  %55 = load ptr, ptr %7, align 8
  %56 = getelementptr inbounds %struct.BEValue, ptr %55, i32 0, i32 2
  %57 = load ptr, ptr %56, align 8
  %58 = call ptr @llvm_get_type(ptr noundef %54, ptr noundef %57)
  %59 = load i32, ptr %9, align 4
  %60 = load ptr, ptr %7, align 8
  %61 = getelementptr inbounds %struct.BEValue, ptr %60, i32 0, i32 1
  %62 = load i32, ptr %61, align 4
  %63 = call ptr @llvm_emit_struct_gep_raw(ptr noundef %50, ptr noundef %53, ptr noundef %58, i32 noundef %59, i32 noundef %62, ptr noundef %12)
  store ptr %63, ptr %13, align 8
  %64 = load ptr, ptr %6, align 8
  %65 = load ptr, ptr %13, align 8
  %66 = load ptr, ptr %10, align 8
  %67 = getelementptr inbounds %struct.Decl_, ptr %66, i32 0, i32 10
  %68 = load ptr, ptr %67, align 8
  call void @llvm_value_set_address_abi_aligned(ptr noundef %64, ptr noundef %65, ptr noundef %68)
  %69 = load i32, ptr %12, align 4
  %70 = load ptr, ptr %6, align 8
  %71 = getelementptr inbounds %struct.BEValue, ptr %70, i32 0, i32 1
  store i32 %69, ptr %71, align 4
  ret void
}

; Function Attrs: nounwind uwtable
define internal void @llvm_emit_member_addr(ptr noundef %0, ptr noundef %1, ptr noundef %2, ptr noundef %3) #0 {
  %5 = alloca ptr, align 8
  %6 = alloca ptr, align 8
  %7 = alloca ptr, align 8
  %8 = alloca ptr, align 8
  %9 = alloca ptr, align 8
  %10 = alloca ptr, align 8
  %11 = alloca ptr, align 8
  %12 = alloca ptr, align 8
  %13 = alloca i32, align 4
  store ptr %0, ptr %8, align 8
  store ptr %1, ptr %9, align 8
  store ptr %2, ptr %10, align 8
  store ptr %3, ptr %11, align 8
  store ptr null, ptr %12, align 8
  br label %14

14:                                               ; preds = %59, %4
  %15 = load ptr, ptr %10, align 8
  %16 = load ptr, ptr %11, align 8
  %17 = call i32 @find_member_index(ptr noundef %15, ptr noundef %16)
  store i32 %17, ptr %13, align 4
  %18 = load ptr, ptr %10, align 8
  %19 = getelementptr inbounds %struct.Decl_, ptr %18, i32 0, i32 11
  %20 = getelementptr inbounds %struct.anon.2, ptr %19, i32 0, i32 2
  %21 = getelementptr inbounds %struct.StructDecl, ptr %20, i32 0, i32 1
  %22 = load ptr, ptr %21, align 8
  %23 = load i32, ptr %13, align 4
  %24 = sext i32 %23 to i64
  %25 = getelementptr inbounds ptr, ptr %22, i64 %24
  %26 = load ptr, ptr %25, align 8
  store ptr %26, ptr %12, align 8
  %27 = load ptr, ptr %10, align 8
  %28 = getelementptr inbounds %struct.Decl_, ptr %27, i32 0, i32 10
  %29 = load ptr, ptr %28, align 8
  %30 = getelementptr inbounds %struct.Type_, ptr %29, i32 0, i32 1
  %31 = load ptr, ptr %30, align 8
  %32 = getelementptr inbounds %struct.Type_, ptr %31, i32 0, i32 0
  %33 = load i32, ptr %32, align 8
  switch i32 %33, label %54 [
    i32 27, label %34
    i32 26, label %47
  ]

34:                                               ; preds = %14
  %35 = load ptr, ptr %8, align 8
  %36 = load ptr, ptr %9, align 8
  call void @llvm_value_addr(ptr noundef %35, ptr noundef %36)
  %37 = load ptr, ptr %8, align 8
  %38 = load ptr, ptr %9, align 8
  %39 = load ptr, ptr %12, align 8
  %40 = getelementptr inbounds %struct.Decl_, ptr %39, i32 0, i32 10
  %41 = load ptr, ptr %40, align 8
  store ptr %37, ptr %5, align 8
  store ptr %38, ptr %6, align 8
  store ptr %41, ptr %7, align 8
  %42 = load ptr, ptr %7, align 8
  %43 = call ptr @type_lowering(ptr noundef %42)
  store ptr %43, ptr %7, align 8
  %44 = load ptr, ptr %7, align 8
  %45 = load ptr, ptr %6, align 8
  %46 = getelementptr inbounds %struct.BEValue, ptr %45, i32 0, i32 2
  store ptr %44, ptr %46, align 8
  br label %57

47:                                               ; preds = %14
  %48 = load ptr, ptr %8, align 8
  %49 = load ptr, ptr %9, align 8
  call void @llvm_value_addr(ptr noundef %48, ptr noundef %49)
  %50 = load ptr, ptr %8, align 8
  %51 = load ptr, ptr %9, align 8
  %52 = load ptr, ptr %9, align 8
  %53 = load i32, ptr %13, align 4
  call void @llvm_value_struct_gep(ptr noundef %50, ptr noundef %51, ptr noundef %52, i32 noundef %53)
  br label %57

54:                                               ; preds = %14
  br label %55

55:                                               ; preds = %54
  call void (ptr, ...) @error_exit(ptr noundef @.str.9, ptr noundef @.str.10, ptr noundef @__func__.llvm_emit_member_addr, ptr noundef @.str.11, i32 noundef 791) #7
  unreachable

56:                                               ; No predecessors!
  br label %57

57:                                               ; preds = %56, %47, %34
  %58 = load ptr, ptr %12, align 8
  store ptr %58, ptr %10, align 8
  br label %59

59:                                               ; preds = %57
  %60 = load ptr, ptr %12, align 8
  %61 = load ptr, ptr %11, align 8
  %62 = icmp ne ptr %60, %61
  br i1 %62, label %14, label %63, !llvm.loop !70

63:                                               ; preds = %59
  ret void
}